; Function Attrs: nounwind uwtable
define internal fastcc noundef zeroext i1 @lxb_html_tree_insertion_mode_in_row_ct_open_closed(ptr noundef %0, ptr noundef %1) unnamed_addr #0 {
  %3 = tail call ptr @lxb_html_tree_element_in_scope(ptr noundef %0, i64 noundef 187, i64 noundef 2, i32 noundef 64) #2
  %4 = icmp eq ptr %3, null
  br i1 %4, label %5, label %6

5:                                                ; preds = %2
  tail call void @lxb_html_tree_parse_error(ptr noundef %0, ptr noundef %1, i32 noundef 0) #2
  br label %26

6:                                                ; preds = %2
  %7 = getelementptr i8, ptr %0, i64 32
  %.val.i = load ptr, ptr %7, align 8
  %8 = getelementptr inbounds i8, ptr %.val.i, i64 16
  %9 = load i64, ptr %8, align 8
  %10 = icmp eq i64 %9, 0
  br i1 %10, label %lxb_html_tree_current_node.exit.i.preheader, label %lxb_html_tree_current_node.exit.i.sink.split

lxb_html_tree_current_node.exit.i.sink.split:     ; preds = %.critedge.i, %6
  %.val11.i.sink = phi ptr [ %.val.i, %6 ], [ %.val11.i, %.critedge.i ]
  %.sink9 = phi i64 [ %9, %6 ], [ %22, %.critedge.i ]
  %11 = load ptr, ptr %.val11.i.sink, align 8
  %12 = getelementptr ptr, ptr %11, i64 %.sink9
  %13 = getelementptr i8, ptr %12, i64 -8
  %14 = load ptr, ptr %13, align 8
  br label %lxb_html_tree_current_node.exit.i.preheader

lxb_html_tree_current_node.exit.i.preheader:      ; preds = %6, %lxb_html_tree_current_node.exit.i.sink.split
  %.val.ph = phi ptr [ %.val11.i.sink, %lxb_html_tree_current_node.exit.i.sink.split ], [ %.val.i, %6 ]
  %.0.i.ph = phi ptr [ %14, %lxb_html_tree_current_node.exit.i.sink.split ], [ null, %6 ]
  br label %lxb_html_tree_current_node.exit.i

lxb_html_tree_current_node.exit.i:                ; preds = %lxb_html_tree_current_node.exit.i.preheader, %.critedge.i
  %.val = phi ptr [ %.val11.i, %.critedge.i ], [ %.val.ph, %lxb_html_tree_current_node.exit.i.preheader ]
  %.0.i = phi ptr [ null, %.critedge.i ], [ %.0.i.ph, %lxb_html_tree_current_node.exit.i.preheader ]
  %15 = getelementptr inbounds i8, ptr %.0.i, i64 8
  %16 = load i64, ptr %15, align 8
  switch i64 %16, label %.critedge.i [
    i64 187, label %17
    i64 179, label %17
    i64 101, label %17
  ]

17:                                               ; preds = %lxb_html_tree_current_node.exit.i, %lxb_html_tree_current_node.exit.i, %lxb_html_tree_current_node.exit.i
  %18 = getelementptr inbounds i8, ptr %.0.i, i64 24
  %19 = load i64, ptr %18, align 8
  %.not10.i = icmp eq i64 %19, 2
  br i1 %.not10.i, label %lxb_html_tree_clear_stack_back_to_table_row.exit, label %.critedge.i

.critedge.i:                                      ; preds = %17, %lxb_html_tree_current_node.exit.i
  %20 = tail call ptr @lexbor_array_pop(ptr noundef nonnull %.val) #2
  %.val11.i = load ptr, ptr %7, align 8
  %21 = getelementptr inbounds i8, ptr %.val11.i, i64 16
  %22 = load i64, ptr %21, align 8
  %23 = icmp eq i64 %22, 0
  br i1 %23, label %lxb_html_tree_current_node.exit.i, label %lxb_html_tree_current_node.exit.i.sink.split

lxb_html_tree_clear_stack_back_to_table_row.exit: ; preds = %17
  %24 = tail call ptr @lexbor_array_pop(ptr noundef nonnull %.val) #2
  %25 = getelementptr inbounds i8, ptr %0, i64 88
  store ptr @lxb_html_tree_insertion_mode_in_table_body, ptr %25, align 8
  br label %26

26:                                               ; preds = %lxb_html_tree_clear_stack_back_to_table_row.exit, %5
  ret i1 %4
}